(lp0
(S'cppflags'
p1
ccopy_reg
_reconstructor
p2
(cino.utils
SpaceList
p3
c__builtin__
list
p4
(lp5
S'-mmcu=atmega328p'
p6
aS'-DF_CPU=16000000L'
p7
aS'-DARDUINO=103'
p8
aS'-I/usr/share/arduino/hardware/arduino/cores/arduino'
p9
aS'-ffunction-sections'
p10
aS'-fdata-sections'
p11
aS'-g'
p12
aS'-Os'
p13
aS'-w'
p14
aS'-I/usr/share/arduino/hardware/arduino/variants/standard'
p15
aS'-I/usr/share/arduino/libraries/SoftwareSerial'
p16
aS'-I/usr/share/arduino/hardware/arduino/cores/arduino'
p17
atp18
Rp19
tp20
a(S'arduino_variants_dir'
p21
S'/usr/share/arduino/hardware/arduino/variants'
p22
tp23
a(S'version.txt'
p24
S'/usr/share/arduino/lib/version.txt'
p25
tp26
a(S'used_libs'
p27
(lp28
S'/usr/share/arduino/libraries/SoftwareSerial'
p29
aS'/usr/share/arduino/hardware/arduino/cores/arduino'
p30
atp31
a(S'cxx'
p32
S'/usr/bin/avr-g++'
p33
tp34
a(S'make'
p35
S'/usr/bin/make'
p36
tp37
a(S'build_dir'
p38
S'.build/uno'
p39
tp40
a(S'arduino_core_dir'
p41
g30
tp42
a(S'boards.txt'
p43
S'/usr/share/arduino/hardware/arduino/boards.txt'
p44
tp45
a(S'cxxflags'
p46
g2
(g3
g4
(lp47
S'-fno-exceptions'
p48
atp49
Rp50
tp51
a(S'cc'
p52
S'/usr/bin/avr-gcc'
p53
tp54
a(S'deps'
p55
g2
(g3
g4
(lp56
S'.build/uno/src/dependencies.d'
p57
aS'.build/uno/arduino/dependencies.d'
p58
aS'.build/uno/SoftwareSerial/dependencies.d'
p59
atp60
Rp61
tp62
a(S'ar'
p63
S'/usr/bin/avr-ar'
p64
tp65
a(S'names'
p66
(dp67
S'cpp'
p68
S'%s.cpp'
p69
sS'obj'
p70
S'%s.o'
p71
sS'deps'
p72
S'%s.d'
p73
sS'lib'
p74
S'lib%s.a'
p75
stp76
a(S'cflags'
p77
g2
(g3
g4
(lp78
tp79
Rp80
tp81
a(S'arduino_libraries_dir'
p82
S'/usr/share/arduino/libraries'
p83
tp84
a(S'arduino_lib_version'
p85
g2
(cino.environment
Version
p86
c__builtin__
tuple
p87
(I1
I0
I3
tp88
tp89
Rp90
tp91
a(S'objcopy'
p92
S'/usr/bin/avr-objcopy'
p93
tp94
a(S'board_models'
p95
cino.environment
BoardModels
p96
((lp97
(lp98
S'uno'
p99
a(dp100
S'bootloader'
p101
(dp102
S'extended_fuses'
p103
S'0x05'
p104
sS'high_fuses'
p105
S'0xde'
p106
sS'low_fuses'
p107
S'0xff'
p108
sS'lock_bits'
p109
S'0x0F'
p110
sS'file'
p111
S'optiboot_atmega328.hex'
p112
sS'path'
p113
S'optiboot'
p114
sS'unlock_bits'
p115
S'0x3F'
p116
ssS'upload'
p117
(dp118
S'speed'
p119
S'115200'
p120
sS'maximum_size'
p121
S'32256'
p122
sS'protocol'
p123
S'arduino'
p124
ssS'name'
p125
S'Arduino Uno'
p126
sS'build'
p127
(dp128
S'core'
p129
S'arduino'
p130
sS'mcu'
p131
S'atmega328p'
p132
sS'f_cpu'
p133
S'16000000L'
p134
sS'variant'
p135
S'standard'
p136
ssaa(lp137
S'atmega328'
p138
a(dp139
S'bootloader'
p140
(dp141
S'extended_fuses'
p142
S'0x05'
p143
sS'high_fuses'
p144
S'0xDA'
p145
sS'low_fuses'
p146
S'0xFF'
p147
sS'lock_bits'
p148
S'0x0F'
p149
sS'file'
p150
S'ATmegaBOOT_168_atmega328.hex'
p151
sS'path'
p152
S'atmega'
p153
sS'unlock_bits'
p154
S'0x3F'
p155
ssS'upload'
p156
(dp157
S'speed'
p158
S'57600'
p159
sS'maximum_size'
p160
S'30720'
p161
sS'protocol'
p162
S'arduino'
p163
ssS'name'
p164
S'Arduino Duemilanove w/ ATmega328'
p165
sS'build'
p166
(dp167
S'core'
p168
S'arduino'
p169
sS'mcu'
p170
S'atmega328p'
p171
sS'f_cpu'
p172
S'16000000L'
p173
sS'variant'
p174
S'standard'
p175
ssaa(lp176
S'diecimila'
p177
a(dp178
S'bootloader'
p179
(dp180
S'extended_fuses'
p181
S'0x00'
p182
sS'high_fuses'
p183
S'0xdd'
p184
sS'low_fuses'
p185
S'0xff'
p186
sS'lock_bits'
p187
S'0x0F'
p188
sS'file'
p189
S'ATmegaBOOT_168_diecimila.hex'
p190
sS'path'
p191
S'atmega'
p192
sS'unlock_bits'
p193
S'0x3F'
p194
ssS'upload'
p195
(dp196
S'speed'
p197
S'19200'
p198
sS'maximum_size'
p199
S'14336'
p200
sS'protocol'
p201
S'arduino'
p202
ssS'name'
p203
S'Arduino Diecimila or Duemilanove w/ ATmega168'
p204
sS'build'
p205
(dp206
S'core'
p207
S'arduino'
p208
sS'mcu'
p209
S'atmega168'
p210
sS'f_cpu'
p211
S'16000000L'
p212
sS'variant'
p213
S'standard'
p214
ssaa(lp215
S'nano328'
p216
a(dp217
S'bootloader'
p218
(dp219
S'extended_fuses'
p220
S'0x05'
p221
sS'high_fuses'
p222
S'0xDA'
p223
sS'low_fuses'
p224
S'0xFF'
p225
sS'lock_bits'
p226
S'0x0F'
p227
sS'file'
p228
S'ATmegaBOOT_168_atmega328.hex'
p229
sS'path'
p230
S'atmega'
p231
sS'unlock_bits'
p232
S'0x3F'
p233
ssS'upload'
p234
(dp235
S'speed'
p236
S'57600'
p237
sS'maximum_size'
p238
S'30720'
p239
sS'protocol'
p240
S'arduino'
p241
ssS'name'
p242
S'Arduino Nano w/ ATmega328'
p243
sS'build'
p244
(dp245
S'core'
p246
S'arduino'
p247
sS'mcu'
p248
S'atmega328p'
p249
sS'f_cpu'
p250
S'16000000L'
p251
sS'variant'
p252
S'eightanaloginputs'
p253
ssaa(lp254
S'nano'
p255
a(dp256
S'bootloader'
p257
(dp258
S'extended_fuses'
p259
S'0x00'
p260
sS'high_fuses'
p261
S'0xdd'
p262
sS'low_fuses'
p263
S'0xff'
p264
sS'lock_bits'
p265
S'0x0F'
p266
sS'file'
p267
S'ATmegaBOOT_168_diecimila.hex'
p268
sS'path'
p269
S'atmega'
p270
sS'unlock_bits'
p271
S'0x3F'
p272
ssS'upload'
p273
(dp274
S'speed'
p275
S'19200'
p276
sS'maximum_size'
p277
S'14336'
p278
sS'protocol'
p279
S'arduino'
p280
ssS'name'
p281
S'Arduino Nano w/ ATmega168'
p282
sS'build'
p283
(dp284
S'core'
p285
S'arduino'
p286
sS'mcu'
p287
S'atmega168'
p288
sS'f_cpu'
p289
S'16000000L'
p290
sS'variant'
p291
S'eightanaloginputs'
p292
ssaa(lp293
S'mega2560'
p294
a(dp295
S'bootloader'
p296
(dp297
S'extended_fuses'
p298
S'0xFD'
p299
sS'high_fuses'
p300
S'0xD8'
p301
sS'low_fuses'
p302
S'0xFF'
p303
sS'lock_bits'
p304
S'0x0F'
p305
sS'file'
p306
S'stk500boot_v2_mega2560.hex'
p307
sS'path'
p308
S'stk500v2'
p309
sS'unlock_bits'
p310
S'0x3F'
p311
ssS'upload'
p312
(dp313
S'speed'
p314
S'115200'
p315
sS'maximum_size'
p316
S'258048'
p317
sS'protocol'
p318
S'wiring'
p319
ssS'name'
p320
S'Arduino Mega 2560 or Mega ADK'
p321
sS'build'
p322
(dp323
S'core'
p324
S'arduino'
p325
sS'mcu'
p326
S'atmega2560'
p327
sS'f_cpu'
p328
S'16000000L'
p329
sS'variant'
p330
S'mega'
p331
ssaa(lp332
S'mega'
p333
a(dp334
S'bootloader'
p335
(dp336
S'extended_fuses'
p337
S'0xF5'
p338
sS'high_fuses'
p339
S'0xDA'
p340
sS'low_fuses'
p341
S'0xFF'
p342
sS'lock_bits'
p343
S'0x0F'
p344
sS'file'
p345
S'ATmegaBOOT_168_atmega1280.hex'
p346
sS'path'
p347
S'atmega'
p348
sS'unlock_bits'
p349
S'0x3F'
p350
ssS'upload'
p351
(dp352
S'speed'
p353
S'57600'
p354
sS'maximum_size'
p355
S'126976'
p356
sS'protocol'
p357
S'arduino'
p358
ssS'name'
p359
S'Arduino Mega (ATmega1280)'
p360
sS'build'
p361
(dp362
S'core'
p363
S'arduino'
p364
sS'mcu'
p365
S'atmega1280'
p366
sS'f_cpu'
p367
S'16000000L'
p368
sS'variant'
p369
S'mega'
p370
ssaa(lp371
S'leonardo'
p372
a(dp373
S'bootloader'
p374
(dp375
S'extended_fuses'
p376
S'0xcb'
p377
sS'high_fuses'
p378
S'0xd8'
p379
sS'low_fuses'
p380
S'0xff'
p381
sS'lock_bits'
p382
S'0x2F'
p383
sS'file'
p384
S'Caterina-Leonardo.hex'
p385
sS'path'
p386
S'caterina'
p387
sS'unlock_bits'
p388
S'0x3F'
p389
ssS'upload'
p390
(dp391
S'speed'
p392
S'57600'
p393
sS'maximum_size'
p394
S'28672'
p395
sS'protocol'
p396
S'avr109'
p397
sS'disable_flushing'
p398
S'true'
p399
ssS'name'
p400
S'Arduino Leonardo'
p401
sS'build'
p402
(dp403
S'core'
p404
S'arduino'
p405
sS'f_cpu'
p406
S'16000000L'
p407
sS'vid'
p408
S'0x2341'
p409
sS'pid'
p410
S'0x8036'
p411
sS'variant'
p412
S'leonardo'
p413
sS'mcu'
p414
S'atmega32u4'
p415
ssaa(lp416
S'esplora'
p417
a(dp418
S'bootloader'
p419
(dp420
S'extended_fuses'
p421
S'0xcb'
p422
sS'high_fuses'
p423
S'0xd8'
p424
sS'low_fuses'
p425
S'0xff'
p426
sS'lock_bits'
p427
S'0x2F'
p428
sS'file'
p429
S'Caterina-Esplora.hex'
p430
sS'path'
p431
S'caterina'
p432
sS'unlock_bits'
p433
S'0x3F'
p434
ssS'upload'
p435
(dp436
S'speed'
p437
S'57600'
p438
sS'maximum_size'
p439
S'28672'
p440
sS'protocol'
p441
S'avr109'
p442
sS'disable_flushing'
p443
S'true'
p444
ssS'name'
p445
S'Arduino Esplora'
p446
sS'build'
p447
(dp448
S'core'
p449
S'arduino'
p450
sS'f_cpu'
p451
S'16000000L'
p452
sS'vid'
p453
S'0x2341'
p454
sS'pid'
p455
S'0x803C'
p456
sS'variant'
p457
S'leonardo'
p458
sS'mcu'
p459
S'atmega32u4'
p460
ssaa(lp461
S'micro'
p462
a(dp463
S'bootloader'
p464
(dp465
S'extended_fuses'
p466
S'0xcb'
p467
sS'high_fuses'
p468
S'0xd8'
p469
sS'low_fuses'
p470
S'0xff'
p471
sS'lock_bits'
p472
S'0x2F'
p473
sS'file'
p474
S'Caterina-Micro.hex'
p475
sS'path'
p476
S'caterina'
p477
sS'unlock_bits'
p478
S'0x3F'
p479
ssS'upload'
p480
(dp481
S'speed'
p482
S'57600'
p483
sS'maximum_size'
p484
S'28672'
p485
sS'protocol'
p486
S'avr109'
p487
sS'disable_flushing'
p488
S'true'
p489
ssS'name'
p490
S'Arduino Micro'
p491
sS'build'
p492
(dp493
S'core'
p494
S'arduino'
p495
sS'f_cpu'
p496
S'16000000L'
p497
sS'vid'
p498
S'0x2341'
p499
sS'pid'
p500
S'0x8037'
p501
sS'variant'
p502
S'micro'
p503
sS'mcu'
p504
S'atmega32u4'
p505
ssaa(lp506
S'mini328'
p507
a(dp508
S'bootloader'
p509
(dp510
S'extended_fuses'
p511
S'0x05'
p512
sS'high_fuses'
p513
S'0xd8'
p514
sS'low_fuses'
p515
S'0xff'
p516
sS'lock_bits'
p517
S'0x0F'
p518
sS'file'
p519
S'optiboot_atmega328-Mini.hex'
p520
sS'path'
p521
S'optiboot'
p522
sS'unlock_bits'
p523
S'0x3F'
p524
ssS'upload'
p525
(dp526
S'speed'
p527
S'115200'
p528
sS'maximum_size'
p529
S'28672'
p530
sS'protocol'
p531
S'arduino'
p532
ssS'name'
p533
S'Arduino Mini w/ ATmega328'
p534
sS'build'
p535
(dp536
S'core'
p537
S'arduino'
p538
sS'mcu'
p539
S'atmega328p'
p540
sS'f_cpu'
p541
S'16000000L'
p542
sS'variant'
p543
S'eightanaloginputs'
p544
ssaa(lp545
S'mini'
p546
a(dp547
S'bootloader'
p548
(dp549
S'extended_fuses'
p550
S'0x00'
p551
sS'high_fuses'
p552
S'0xdd'
p553
sS'low_fuses'
p554
S'0xff'
p555
sS'lock_bits'
p556
S'0x0F'
p557
sS'file'
p558
S'ATmegaBOOT_168_ng.hex'
p559
sS'path'
p560
S'atmega'
p561
sS'unlock_bits'
p562
S'0x3F'
p563
ssS'upload'
p564
(dp565
S'speed'
p566
S'19200'
p567
sS'maximum_size'
p568
S'14336'
p569
sS'protocol'
p570
S'arduino'
p571
ssS'name'
p572
S'Arduino Mini w/ ATmega168'
p573
sS'build'
p574
(dp575
S'core'
p576
S'arduino'
p577
sS'mcu'
p578
S'atmega168'
p579
sS'f_cpu'
p580
S'16000000L'
p581
sS'variant'
p582
S'eightanaloginputs'
p583
ssaa(lp584
S'ethernet'
p585
a(dp586
S'bootloader'
p587
(dp588
S'extended_fuses'
p589
S'0x05'
p590
sS'high_fuses'
p591
S'0xde'
p592
sS'low_fuses'
p593
S'0xff'
p594
sS'lock_bits'
p595
S'0x0F'
p596
sS'file'
p597
S'optiboot_atmega328.hex'
p598
sS'path'
p599
S'optiboot'
p600
sS'unlock_bits'
p601
S'0x3F'
p602
ssS'upload'
p603
(dp604
S'speed'
p605
S'115200'
p606
sS'maximum_size'
p607
S'32256'
p608
sS'protocol'
p609
S'arduino'
p610
ssS'name'
p611
S'Arduino Ethernet'
p612
sS'build'
p613
(dp614
S'f_cpu'
p615
S'16000000L'
p616
sS'mcu'
p617
S'atmega328p'
p618
sS'variant'
p619
S'standard'
p620
sS'core'
p621
S'arduino'
p622
ssaa(lp623
S'fio'
p624
a(dp625
S'bootloader'
p626
(dp627
S'extended_fuses'
p628
S'0x05'
p629
sS'high_fuses'
p630
S'0xDA'
p631
sS'low_fuses'
p632
S'0xFF'
p633
sS'lock_bits'
p634
S'0x0F'
p635
sS'file'
p636
S'ATmegaBOOT_168_atmega328_pro_8MHz.hex'
p637
sS'path'
p638
S'arduino:atmega'
p639
sS'unlock_bits'
p640
S'0x3F'
p641
ssS'upload'
p642
(dp643
S'speed'
p644
S'57600'
p645
sS'maximum_size'
p646
S'30720'
p647
sS'protocol'
p648
S'arduino'
p649
ssS'name'
p650
S'Arduino Fio'
p651
sS'build'
p652
(dp653
S'core'
p654
S'arduino'
p655
sS'mcu'
p656
S'atmega328p'
p657
sS'f_cpu'
p658
S'8000000L'
p659
sS'variant'
p660
S'eightanaloginputs'
p661
ssaa(lp662
S'bt328'
p663
a(dp664
S'bootloader'
p665
(dp666
S'extended_fuses'
p667
S'0x05'
p668
sS'high_fuses'
p669
S'0xd8'
p670
sS'low_fuses'
p671
S'0xff'
p672
sS'lock_bits'
p673
S'0x0F'
p674
sS'file'
p675
S'ATmegaBOOT_168_atmega328_bt.hex'
p676
sS'path'
p677
S'bt'
p678
sS'unlock_bits'
p679
S'0x3F'
p680
ssS'upload'
p681
(dp682
S'speed'
p683
S'19200'
p684
sS'maximum_size'
p685
S'28672'
p686
sS'protocol'
p687
S'arduino'
p688
sS'disable_flushing'
p689
S'true'
p690
ssS'name'
p691
S'Arduino BT w/ ATmega328'
p692
sS'build'
p693
(dp694
S'core'
p695
S'arduino'
p696
sS'mcu'
p697
S'atmega328p'
p698
sS'f_cpu'
p699
S'16000000L'
p700
sS'variant'
p701
S'eightanaloginputs'
p702
ssaa(lp703
S'bt'
p704
a(dp705
S'bootloader'
p706
(dp707
S'extended_fuses'
p708
S'0x00'
p709
sS'high_fuses'
p710
S'0xdd'
p711
sS'low_fuses'
p712
S'0xff'
p713
sS'lock_bits'
p714
S'0x0F'
p715
sS'file'
p716
S'ATmegaBOOT_168.hex'
p717
sS'path'
p718
S'bt'
p719
sS'unlock_bits'
p720
S'0x3F'
p721
ssS'upload'
p722
(dp723
S'speed'
p724
S'19200'
p725
sS'maximum_size'
p726
S'14336'
p727
sS'protocol'
p728
S'arduino'
p729
sS'disable_flushing'
p730
S'true'
p731
ssS'name'
p732
S'Arduino BT w/ ATmega168'
p733
sS'build'
p734
(dp735
S'core'
p736
S'arduino'
p737
sS'mcu'
p738
S'atmega168'
p739
sS'f_cpu'
p740
S'16000000L'
p741
sS'variant'
p742
S'eightanaloginputs'
p743
ssaa(lp744
S'LilyPadUSB'
p745
a(dp746
S'bootloader'
p747
(dp748
S'extended_fuses'
p749
S'0xce'
p750
sS'high_fuses'
p751
S'0xd8'
p752
sS'low_fuses'
p753
S'0xff'
p754
sS'lock_bits'
p755
S'0x2F'
p756
sS'file'
p757
S'Caterina-LilyPadUSB.hex'
p758
sS'path'
p759
S'caterina-LilyPadUSB'
p760
sS'unlock_bits'
p761
S'0x3F'
p762
ssS'upload'
p763
(dp764
S'speed'
p765
S'57600'
p766
sS'maximum_size'
p767
S'28672'
p768
sS'protocol'
p769
S'avr109'
p770
sS'disable_flushing'
p771
S'true'
p772
ssS'name'
p773
S'LilyPad Arduino USB'
p774
sS'build'
p775
(dp776
S'core'
p777
S'arduino'
p778
sS'f_cpu'
p779
S'8000000L'
p780
sS'vid'
p781
S'0x1B4F'
p782
sS'pid'
p783
S'0x9208'
p784
sS'variant'
p785
S'leonardo'
p786
sS'mcu'
p787
S'atmega32u4'
p788
ssaa(lp789
S'lilypad328'
p790
a(dp791
S'bootloader'
p792
(dp793
S'extended_fuses'
p794
S'0x05'
p795
sS'high_fuses'
p796
S'0xDA'
p797
sS'low_fuses'
p798
S'0xFF'
p799
sS'lock_bits'
p800
S'0x0F'
p801
sS'file'
p802
S'ATmegaBOOT_168_atmega328_pro_8MHz.hex'
p803
sS'path'
p804
S'atmega'
p805
sS'unlock_bits'
p806
S'0x3F'
p807
ssS'upload'
p808
(dp809
S'speed'
p810
S'57600'
p811
sS'maximum_size'
p812
S'30720'
p813
sS'protocol'
p814
S'arduino'
p815
ssS'name'
p816
S'LilyPad Arduino w/ ATmega328'
p817
sS'build'
p818
(dp819
S'core'
p820
S'arduino'
p821
sS'mcu'
p822
S'atmega328p'
p823
sS'f_cpu'
p824
S'8000000L'
p825
sS'variant'
p826
S'standard'
p827
ssaa(lp828
S'lilypad'
p829
a(dp830
S'bootloader'
p831
(dp832
S'extended_fuses'
p833
S'0x00'
p834
sS'high_fuses'
p835
S'0xdd'
p836
sS'low_fuses'
p837
S'0xe2'
p838
sS'lock_bits'
p839
S'0x0F'
p840
sS'file'
p841
S'LilyPadBOOT_168.hex'
p842
sS'path'
p843
S'lilypad'
p844
sS'unlock_bits'
p845
S'0x3F'
p846
ssS'upload'
p847
(dp848
S'speed'
p849
S'19200'
p850
sS'maximum_size'
p851
S'14336'
p852
sS'protocol'
p853
S'arduino'
p854
ssS'name'
p855
S'LilyPad Arduino w/ ATmega168'
p856
sS'build'
p857
(dp858
S'core'
p859
S'arduino'
p860
sS'mcu'
p861
S'atmega168'
p862
sS'f_cpu'
p863
S'8000000L'
p864
sS'variant'
p865
S'standard'
p866
ssaa(lp867
S'pro5v328'
p868
a(dp869
S'bootloader'
p870
(dp871
S'extended_fuses'
p872
S'0x05'
p873
sS'high_fuses'
p874
S'0xDA'
p875
sS'low_fuses'
p876
S'0xFF'
p877
sS'lock_bits'
p878
S'0x0F'
p879
sS'file'
p880
S'ATmegaBOOT_168_atmega328.hex'
p881
sS'path'
p882
S'atmega'
p883
sS'unlock_bits'
p884
S'0x3F'
p885
ssS'upload'
p886
(dp887
S'speed'
p888
S'57600'
p889
sS'maximum_size'
p890
S'30720'
p891
sS'protocol'
p892
S'arduino'
p893
ssS'name'
p894
S'Arduino Pro or Pro Mini (5V, 16 MHz) w/ ATmega328'
p895
sS'build'
p896
(dp897
S'core'
p898
S'arduino'
p899
sS'mcu'
p900
S'atmega328p'
p901
sS'f_cpu'
p902
S'16000000L'
p903
sS'variant'
p904
S'standard'
p905
ssaa(lp906
S'pro5v'
p907
a(dp908
S'bootloader'
p909
(dp910
S'extended_fuses'
p911
S'0x00'
p912
sS'high_fuses'
p913
S'0xdd'
p914
sS'low_fuses'
p915
S'0xff'
p916
sS'lock_bits'
p917
S'0x0F'
p918
sS'file'
p919
S'ATmegaBOOT_168_diecimila.hex'
p920
sS'path'
p921
S'atmega'
p922
sS'unlock_bits'
p923
S'0x3F'
p924
ssS'upload'
p925
(dp926
S'speed'
p927
S'19200'
p928
sS'maximum_size'
p929
S'14336'
p930
sS'protocol'
p931
S'arduino'
p932
ssS'name'
p933
S'Arduino Pro or Pro Mini (5V, 16 MHz) w/ ATmega168'
p934
sS'build'
p935
(dp936
S'core'
p937
S'arduino'
p938
sS'mcu'
p939
S'atmega168'
p940
sS'f_cpu'
p941
S'16000000L'
p942
sS'variant'
p943
S'standard'
p944
ssaa(lp945
S'pro328'
p946
a(dp947
S'bootloader'
p948
(dp949
S'extended_fuses'
p950
S'0x05'
p951
sS'high_fuses'
p952
S'0xDA'
p953
sS'low_fuses'
p954
S'0xFF'
p955
sS'lock_bits'
p956
S'0x0F'
p957
sS'file'
p958
S'ATmegaBOOT_168_atmega328_pro_8MHz.hex'
p959
sS'path'
p960
S'atmega'
p961
sS'unlock_bits'
p962
S'0x3F'
p963
ssS'upload'
p964
(dp965
S'speed'
p966
S'57600'
p967
sS'maximum_size'
p968
S'30720'
p969
sS'protocol'
p970
S'arduino'
p971
ssS'name'
p972
S'Arduino Pro or Pro Mini (3.3V, 8 MHz) w/ ATmega328'
p973
sS'build'
p974
(dp975
S'core'
p976
S'arduino'
p977
sS'mcu'
p978
S'atmega328p'
p979
sS'f_cpu'
p980
S'8000000L'
p981
sS'variant'
p982
S'standard'
p983
ssaa(lp984
S'pro'
p985
a(dp986
S'bootloader'
p987
(dp988
S'extended_fuses'
p989
S'0x00'
p990
sS'high_fuses'
p991
S'0xdd'
p992
sS'low_fuses'
p993
S'0xc6'
p994
sS'lock_bits'
p995
S'0x0F'
p996
sS'file'
p997
S'ATmegaBOOT_168_pro_8MHz.hex'
p998
sS'path'
p999
S'atmega'
p1000
sS'unlock_bits'
p1001
S'0x3F'
p1002
ssS'upload'
p1003
(dp1004
S'speed'
p1005
S'19200'
p1006
sS'maximum_size'
p1007
S'14336'
p1008
sS'protocol'
p1009
S'arduino'
p1010
ssS'name'
p1011
S'Arduino Pro or Pro Mini (3.3V, 8 MHz) w/ ATmega168'
p1012
sS'build'
p1013
(dp1014
S'core'
p1015
S'arduino'
p1016
sS'mcu'
p1017
S'atmega168'
p1018
sS'f_cpu'
p1019
S'8000000L'
p1020
sS'variant'
p1021
S'standard'
p1022
ssaa(lp1023
S'atmega168'
p1024
a(dp1025
S'bootloader'
p1026
(dp1027
S'extended_fuses'
p1028
S'0x00'
p1029
sS'high_fuses'
p1030
S'0xdd'
p1031
sS'low_fuses'
p1032
S'0xff'
p1033
sS'lock_bits'
p1034
S'0x0F'
p1035
sS'file'
p1036
S'ATmegaBOOT_168_ng.hex'
p1037
sS'path'
p1038
S'atmega'
p1039
sS'unlock_bits'
p1040
S'0x3F'
p1041
ssS'upload'
p1042
(dp1043
S'speed'
p1044
S'19200'
p1045
sS'maximum_size'
p1046
S'14336'
p1047
sS'protocol'
p1048
S'arduino'
p1049
ssS'name'
p1050
S'Arduino NG or older w/ ATmega168'
p1051
sS'build'
p1052
(dp1053
S'core'
p1054
S'arduino'
p1055
sS'mcu'
p1056
S'atmega168'
p1057
sS'f_cpu'
p1058
S'16000000L'
p1059
sS'variant'
p1060
S'standard'
p1061
ssaa(lp1062
S'atmega8'
p1063
a(dp1064
S'bootloader'
p1065
(dp1066
S'high_fuses'
p1067
S'0xca'
p1068
sS'low_fuses'
p1069
S'0xdf'
p1070
sS'lock_bits'
p1071
S'0x0F'
p1072
sS'file'
p1073
S'ATmegaBOOT-prod-firmware-2009-11-07.hex'
p1074
sS'path'
p1075
S'atmega8'
p1076
sS'unlock_bits'
p1077
S'0x3F'
p1078
ssS'upload'
p1079
(dp1080
S'speed'
p1081
S'19200'
p1082
sS'maximum_size'
p1083
S'7168'
p1084
sS'protocol'
p1085
S'arduino'
p1086
ssS'name'
p1087
S'Arduino NG or older w/ ATmega8'
p1088
sS'build'
p1089
(dp1090
S'core'
p1091
S'arduino'
p1092
sS'mcu'
p1093
S'atmega8'
p1094
sS'f_cpu'
p1095
S'16000000L'
p1096
sS'variant'
p1097
S'standard'
p1098
ssaatp1099
Rp1100
(dp1101
S'default'
p1102
S'uno'
p1103
sbtp1104
a(S'ldflags'
p1105
g2
(g3
g4
(lp1106
g6
aS'-Wl,-Os'
p1107
aS'-Wl,--gc-sections'
p1108
atp1109
Rp1110
tp1111
a.